target datalayout = "e-m:e-p270:32:32-p271:32:32-p272:64:64-i64:64-i128:128-f80:128-n8:16:32:64-S128"
target triple = "x86_64-pc-linux-gnu"

; Function Attrs: mustprogress uwtable
define void @_Z7set_pbcP5t_pbc7PbcTypePA3_Kf(ptr noundef %0, i32 noundef %1, ptr noundef %2) #3 {
  %4 = alloca ptr, align 8
  %5 = alloca i32, align 4
  %6 = alloca ptr, align 8
  store ptr %0, ptr %4, align 8, !tbaa !41
  store i32 %1, ptr %5, align 4, !tbaa !34
  store ptr %2, ptr %6, align 8, !tbaa !48
  %7 = load i32, ptr %5, align 4, !tbaa !34
  %8 = icmp eq i32 %7, 4
  br i1 %8, label %9, label %12

9:                                                ; preds = %3
  %10 = load ptr, ptr %6, align 8, !tbaa !48
  %11 = call noundef i32 @_Z12guessPbcTypePA3_Kf(ptr noundef %10)
  store i32 %11, ptr %5, align 4, !tbaa !34
  br label %12

12:                                               ; preds = %9, %3
  %13 = load ptr, ptr %4, align 8, !tbaa !41
  %14 = load i32, ptr %5, align 4, !tbaa !34
  %15 = load ptr, ptr %6, align 8, !tbaa !48
  call void @_ZL11low_set_pbcP5t_pbc7PbcTypePKiPA3_Kf(ptr noundef %13, i32 noundef %14, ptr noundef null, ptr noundef %15)
  ret void
}