; Function Attrs: mustprogress uwtable
define void @_Z7set_pbcP5t_pbc7PbcTypePA3_Kf(ptr noundef captures(none) initializes((0, 4)) %0, i32 noundef %1, ptr noundef %2) local_unnamed_addr #1 {
  %4 = icmp eq i32 %1, 4
  br i1 %4, label %5, label %7

5:                                                ; preds = %3
  %6 = tail call noundef i32 @_Z12guessPbcTypePA3_Kf(ptr noundef %2)
  br label %7

7:                                                ; preds = %5, %3
  %.0 = phi i32 [ %6, %5 ], [ %1, %3 ]
  tail call fastcc void @_ZL11low_set_pbcP5t_pbc7PbcTypePKiPA3_Kf(ptr noundef %0, i32 noundef %.0, ptr noundef null, ptr noundef %2)
  ret void
}